; ModuleID = '62/128.c'
source_filename = "62/128.c"
target datalayout = "e-m:e-p270:32:32-p271:32:32-p272:64:64-i64:64-f80:128-n8:16:32:64-S128"
target triple = "x86_64-pc-linux-gnu"

; Function Attrs: noinline nounwind uwtable
define dso_local i32 @main() #0 {
  %1 = alloca i32, align 4
  %2 = alloca i32, align 4
  %3 = alloca i32, align 4
  store i32 0, i32* %1, align 4
  store i32 0, i32* %3, align 4
  br label %4

4:                                                ; preds = %0, %25
  %5 = call i32 @getchar()
  store i32 %5, i32* %2, align 4
  %6 = load i32, i32* %2, align 4
  %7 = icmp eq i32 %6, 10
  br i1 %7, label %8, label %9

8:                                                ; preds = %4
  br label %26

9:                                                ; preds = %4
  %10 = load i32, i32* %2, align 4
  %11 = icmp eq i32 %10, 32
  br i1 %11, label %12, label %18

12:                                               ; preds = %9
  %13 = load i32, i32* %3, align 4
  %14 = icmp eq i32 %13, 0
  br i1 %14, label %15, label %18

15:                                               ; preds = %12
  %16 = load i32, i32* %2, align 4
  %17 = call i32 @putchar(i32 %16)
  store i32 1, i32* %3, align 4
  br label %25

18:                                               ; preds = %12, %9
  %19 = load i32, i32* %2, align 4
  %20 = icmp ne i32 %19, 32
  br i1 %20, label %21, label %24

21:                                               ; preds = %18
  %22 = load i32, i32* %2, align 4
  %23 = call i32 @putchar(i32 %22)
  store i32 0, i32* %3, align 4
  br label %24

24:                                               ; preds = %21, %18
  br label %25

25:                                               ; preds = %24, %15
  br label %4

26:                                               ; preds = %8
  ret i32 0
}

declare dso_local i32 @getchar() #1

declare dso_local i32 @putchar(i32) #1


!llvm.module.flags = !{!0}
!llvm.ident = !{!1}

!0 = !{i32 1, !"wchar_size", i32 4}
!1 = !{!"clang version 10.0.0-4ubuntu1 "}
