; ModuleID = 'source-C-CXX/61/128.c'
source_filename = "source-C-CXX/61/128.c"
target datalayout = "e-m:e-p270:32:32-p271:32:32-p272:64:64-i64:64-f80:128-n8:16:32:64-S128"
target triple = "x86_64-pc-linux-gnu"

%struct._IO_FILE = type { i32, i8*, i8*, i8*, i8*, i8*, i8*, i8*, i8*, i8*, i8*, i8*, %struct._IO_marker*, %struct._IO_FILE*, i32, i32, i64, i16, i8, [1 x i8], i8*, i64, %struct._IO_codecvt*, %struct._IO_wide_data*, %struct._IO_FILE*, i8*, i64, i32, [20 x i8] }
%struct._IO_marker = type opaque
%struct._IO_codecvt = type opaque
%struct._IO_wide_data = type opaque

@stdin = external local_unnamed_addr global %struct._IO_FILE*, align 8
@stdout = external local_unnamed_addr global %struct._IO_FILE*, align 8

; Function Attrs: nofree nounwind sspstrong uwtable
define dso_local i32 @main() local_unnamed_addr #0 {
  %1 = load %struct._IO_FILE*, %struct._IO_FILE** @stdin, align 8, !tbaa !5
  %2 = tail call i32 @getc(%struct._IO_FILE* %1) #2
  %3 = icmp eq i32 %2, 10
  br i1 %3, label %22, label %4

4:                                                ; preds = %0, %17
  %5 = phi i32 [ %20, %17 ], [ %2, %0 ]
  %6 = phi i32 [ %18, %17 ], [ 0, %0 ]
  %7 = icmp eq i32 %5, 32
  %8 = icmp eq i32 %6, 0
  %9 = select i1 %7, i1 %8, i1 false
  %10 = xor i1 %7, true
  %11 = or i1 %9, %10
  br i1 %11, label %12, label %17

12:                                               ; preds = %4
  %13 = zext i1 %9 to i32
  %14 = select i1 %9, i32 32, i32 %5
  %15 = load %struct._IO_FILE*, %struct._IO_FILE** @stdout, align 8, !tbaa !5
  %16 = tail call i32 @putc(i32 %14, %struct._IO_FILE* %15) #2
  br label %17

17:                                               ; preds = %4, %12
  %18 = phi i32 [ %13, %12 ], [ %6, %4 ]
  %19 = load %struct._IO_FILE*, %struct._IO_FILE** @stdin, align 8, !tbaa !5
  %20 = tail call i32 @getc(%struct._IO_FILE* %19) #2
  %21 = icmp eq i32 %20, 10
  br i1 %21, label %22, label %4

22:                                               ; preds = %17, %0
  ret i32 0
}

; Function Attrs: nofree nounwind
declare noundef i32 @getc(%struct._IO_FILE* nocapture noundef) local_unnamed_addr #1

; Function Attrs: nofree nounwind
declare noundef i32 @putc(i32 noundef, %struct._IO_FILE* nocapture noundef) local_unnamed_addr #1


!llvm.module.flags = !{!0, !1, !2, !3}
!llvm.ident = !{!4}

!0 = !{i32 1, !"wchar_size", i32 4}
!1 = !{i32 7, !"PIC Level", i32 2}
!2 = !{i32 7, !"PIE Level", i32 2}
!3 = !{i32 7, !"uwtable", i32 1}
!4 = !{!"clang version 13.0.0"}
!5 = !{!6, !6, i64 0}
!6 = !{!"any pointer", !7, i64 0}
!7 = !{!"omnipotent char", !8, i64 0}
!8 = !{!"Simple C/C++ TBAA"}
